; ModuleID = '58/170.c'
source_filename = "58/170.c"
target datalayout = "e-m:e-p270:32:32-p271:32:32-p272:64:64-i64:64-f80:128-n8:16:32:64-S128"
target triple = "x86_64-pc-linux-gnu"

@.str = private unnamed_addr constant [4 x i8] c"%d \00", align 1
@.str.1 = private unnamed_addr constant [3 x i8] c"1\0A\00", align 1
@.str.2 = private unnamed_addr constant [3 x i8] c"0\0A\00", align 1

; Function Attrs: noinline nounwind uwtable
define dso_local i32 @biaozhi(i8* %0) #0 {
  %2 = alloca i32, align 4
  %3 = alloca i8*, align 8
  %4 = alloca i32, align 4
  %5 = alloca i32, align 4
  %6 = alloca i8*, align 8
  store i8* %0, i8** %3, align 8
  %7 = load i8*, i8** %3, align 8
  store i8* %7, i8** %6, align 8
  %8 = load i8*, i8** %3, align 8
  %9 = getelementptr inbounds i8, i8* %8, i64 0
  %10 = load i8, i8* %9, align 1
  %11 = sext i8 %10 to i32
  %12 = icmp sle i32 %11, 122
  br i1 %12, label %13, label %19

13:                                               ; preds = %1
  %14 = load i8*, i8** %3, align 8
  %15 = getelementptr inbounds i8, i8* %14, i64 0
  %16 = load i8, i8* %15, align 1
  %17 = sext i8 %16 to i32
  %18 = icmp sge i32 %17, 97
  br i1 %18, label %37, label %19

19:                                               ; preds = %13, %1
  %20 = load i8*, i8** %3, align 8
  %21 = getelementptr inbounds i8, i8* %20, i64 0
  %22 = load i8, i8* %21, align 1
  %23 = sext i8 %22 to i32
  %24 = icmp sle i32 %23, 90
  br i1 %24, label %25, label %31

25:                                               ; preds = %19
  %26 = load i8*, i8** %3, align 8
  %27 = getelementptr inbounds i8, i8* %26, i64 0
  %28 = load i8, i8* %27, align 1
  %29 = sext i8 %28 to i32
  %30 = icmp sge i32 %29, 65
  br i1 %30, label %37, label %31

31:                                               ; preds = %25, %19
  %32 = load i8*, i8** %3, align 8
  %33 = getelementptr inbounds i8, i8* %32, i64 0
  %34 = load i8, i8* %33, align 1
  %35 = sext i8 %34 to i32
  %36 = icmp eq i32 %35, 95
  br i1 %36, label %37, label %108

37:                                               ; preds = %31, %25, %13
  store i32 1, i32* %5, align 4
  br label %38

38:                                               ; preds = %103, %37
  %39 = load i32, i32* %5, align 4
  %40 = sext i32 %39 to i64
  %41 = load i8*, i8** %3, align 8
  %42 = call i64 @strlen(i8* %41) #3
  %43 = icmp ult i64 %40, %42
  br i1 %43, label %44, label %106

44:                                               ; preds = %38
  %45 = load i8*, i8** %6, align 8
  %46 = load i32, i32* %5, align 4
  %47 = sext i32 %46 to i64
  %48 = getelementptr inbounds i8, i8* %45, i64 %47
  %49 = load i8, i8* %48, align 1
  %50 = sext i8 %49 to i32
  %51 = icmp sle i32 %50, 122
  br i1 %51, label %52, label %60

52:                                               ; preds = %44
  %53 = load i8*, i8** %6, align 8
  %54 = load i32, i32* %5, align 4
  %55 = sext i32 %54 to i64
  %56 = getelementptr inbounds i8, i8* %53, i64 %55
  %57 = load i8, i8* %56, align 1
  %58 = sext i8 %57 to i32
  %59 = icmp sge i32 %58, 97
  br i1 %59, label %100, label %60

60:                                               ; preds = %52, %44
  %61 = load i8*, i8** %6, align 8
  %62 = load i32, i32* %5, align 4
  %63 = sext i32 %62 to i64
  %64 = getelementptr inbounds i8, i8* %61, i64 %63
  %65 = load i8, i8* %64, align 1
  %66 = sext i8 %65 to i32
  %67 = icmp sle i32 %66, 90
  br i1 %67, label %68, label %76

68:                                               ; preds = %60
  %69 = load i8*, i8** %6, align 8
  %70 = load i32, i32* %5, align 4
  %71 = sext i32 %70 to i64
  %72 = getelementptr inbounds i8, i8* %69, i64 %71
  %73 = load i8, i8* %72, align 1
  %74 = sext i8 %73 to i32
  %75 = icmp sge i32 %74, 65
  br i1 %75, label %100, label %76

76:                                               ; preds = %68, %60
  %77 = load i8*, i8** %6, align 8
  %78 = load i32, i32* %5, align 4
  %79 = sext i32 %78 to i64
  %80 = getelementptr inbounds i8, i8* %77, i64 %79
  %81 = load i8, i8* %80, align 1
  %82 = sext i8 %81 to i32
  %83 = icmp eq i32 %82, 95
  br i1 %83, label %100, label %84

84:                                               ; preds = %76
  %85 = load i8*, i8** %6, align 8
  %86 = load i32, i32* %5, align 4
  %87 = sext i32 %86 to i64
  %88 = getelementptr inbounds i8, i8* %85, i64 %87
  %89 = load i8, i8* %88, align 1
  %90 = sext i8 %89 to i32
  %91 = icmp sge i32 %90, 48
  br i1 %91, label %92, label %101

92:                                               ; preds = %84
  %93 = load i8*, i8** %6, align 8
  %94 = load i32, i32* %5, align 4
  %95 = sext i32 %94 to i64
  %96 = getelementptr inbounds i8, i8* %93, i64 %95
  %97 = load i8, i8* %96, align 1
  %98 = sext i8 %97 to i32
  %99 = icmp sle i32 %98, 57
  br i1 %99, label %100, label %101

100:                                              ; preds = %92, %76, %68, %52
  store i32 1, i32* %4, align 4
  br label %102

101:                                              ; preds = %92, %84
  store i32 0, i32* %4, align 4
  br label %106

102:                                              ; preds = %100
  br label %103

103:                                              ; preds = %102
  %104 = load i32, i32* %5, align 4
  %105 = add nsw i32 %104, 1
  store i32 %105, i32* %5, align 4
  br label %38

106:                                              ; preds = %101, %38
  %107 = load i32, i32* %4, align 4
  store i32 %107, i32* %2, align 4
  br label %109

108:                                              ; preds = %31
  store i32 0, i32* %2, align 4
  br label %109

109:                                              ; preds = %108, %106
  %110 = load i32, i32* %2, align 4
  ret i32 %110
}

; Function Attrs: nounwind readonly
declare dso_local i64 @strlen(i8*) #1

; Function Attrs: noinline nounwind uwtable
define dso_local void @main() #0 {
  %1 = alloca i32, align 4
  %2 = alloca i32, align 4
  %3 = alloca [85 x i8], align 16
  %4 = call i32 (i8*, ...) @__isoc99_scanf(i8* getelementptr inbounds ([4 x i8], [4 x i8]* @.str, i64 0, i64 0), i32* %1)
  store i32 0, i32* %2, align 4
  br label %5

5:                                                ; preds = %20, %0
  %6 = load i32, i32* %2, align 4
  %7 = load i32, i32* %1, align 4
  %8 = icmp slt i32 %6, %7
  br i1 %8, label %9, label %23

9:                                                ; preds = %5
  %10 = getelementptr inbounds [85 x i8], [85 x i8]* %3, i64 0, i64 0
  %11 = call i32 (i8*, ...) bitcast (i32 (...)* @gets to i32 (i8*, ...)*)(i8* %10)
  %12 = getelementptr inbounds [85 x i8], [85 x i8]* %3, i64 0, i64 0
  %13 = call i32 @biaozhi(i8* %12)
  %14 = icmp ne i32 %13, 0
  br i1 %14, label %15, label %17

15:                                               ; preds = %9
  %16 = call i32 (i8*, ...) @printf(i8* getelementptr inbounds ([3 x i8], [3 x i8]* @.str.1, i64 0, i64 0))
  br label %19

17:                                               ; preds = %9
  %18 = call i32 (i8*, ...) @printf(i8* getelementptr inbounds ([3 x i8], [3 x i8]* @.str.2, i64 0, i64 0))
  br label %19

19:                                               ; preds = %17, %15
  br label %20

20:                                               ; preds = %19
  %21 = load i32, i32* %2, align 4
  %22 = add nsw i32 %21, 1
  store i32 %22, i32* %2, align 4
  br label %5

23:                                               ; preds = %5
  ret void
}

declare dso_local i32 @__isoc99_scanf(i8*, ...) #2

declare dso_local i32 @gets(...) #2

declare dso_local i32 @printf(i8*, ...) #2


!llvm.module.flags = !{!0}
!llvm.ident = !{!1}

!0 = !{i32 1, !"wchar_size", i32 4}
!1 = !{!"clang version 10.0.0-4ubuntu1 "}
